target datalayout = "e-m:e-p270:32:32-p271:32:32-p272:64:64-i64:64-i128:128-f80:128-n8:16:32:64-S128"
target triple = "x86_64-pc-linux-gnu"

%struct.AVCodecContext = type { ptr, i32, i32, ptr, i32, i32, ptr, ptr, ptr, i64, i32, i32, ptr, i32, %struct.AVRational, %struct.AVRational, %struct.AVRational, i32, i32, i32, i32, i32, %struct.AVRational, i32, i32, i32, i32, i32, i32, i32, i32, i32, i32, i32, ptr, ptr, i32, float, float, float, float, float, float, float, float, float, i32, i32, i32, i32, i32, i32, i32, i32, i32, i32, i32, i32, ptr, ptr, ptr, i32, i32, i32, i32, i32, i32, i32, i32, i32, i32, %struct.AVChannelLayout, i32, i32, i32, i32, i32, i32, i32, i32, ptr, i32, i32, i32, float, float, i32, i32, i32, i32, i32, ptr, i64, i64, float, float, i32, i32, ptr, ptr, i32, i32, i32, i32, i32, ptr, ptr, ptr, ptr, i32, i32, [8 x i64], i32, i32, i32, i32, i32, i32, i32, ptr, ptr, i32, i32, i32, i32, i32, i32, i32, i32, i32, i32, ptr, ptr, i32, i32, ptr, ptr, ptr, ptr, i32, i32, i64, i32, i32, i64, ptr, i64, ptr, i32, ptr, i32 }
%struct.AVRational = type { i32, i32 }
%struct.AVChannelLayout = type { i32, i32, %union.anon.0, ptr }
%union.anon.0 = type { i64 }
%struct.SimbiosisIMXContext = type { ptr, [256 x i32], [32768 x i8], i32 }

; Function Attrs: nounwind uwtable
define internal void @imx_decode_flush(ptr noundef %0) #1 {
  %2 = alloca ptr, align 8
  %3 = alloca ptr, align 8
  store ptr %0, ptr %2, align 8, !tbaa !4
  call void @llvm.lifetime.start.p0(i64 8, ptr %3) #8
  %4 = load ptr, ptr %2, align 8, !tbaa !4
  %5 = getelementptr inbounds nuw %struct.AVCodecContext, ptr %4, i32 0, i32 6
  %6 = load ptr, ptr %5, align 8, !tbaa !9
  store ptr %6, ptr %3, align 8, !tbaa !29
  %7 = load ptr, ptr %3, align 8, !tbaa !29
  %8 = getelementptr inbounds nuw %struct.SimbiosisIMXContext, ptr %7, i32 0, i32 0
  %9 = load ptr, ptr %8, align 8, !tbaa !34
  call void @av_frame_unref(ptr noundef %9)
  %10 = load ptr, ptr %3, align 8, !tbaa !29
  %11 = getelementptr inbounds nuw %struct.SimbiosisIMXContext, ptr %10, i32 0, i32 3
  store i32 0, ptr %11, align 8, !tbaa !55
  %12 = load ptr, ptr %3, align 8, !tbaa !29
  %13 = getelementptr inbounds nuw %struct.SimbiosisIMXContext, ptr %12, i32 0, i32 1
  %14 = getelementptr inbounds [256 x i32], ptr %13, i64 0, i64 0
  call void @llvm.memset.p0.i64(ptr align 8 %14, i8 0, i64 1024, i1 false)
  %15 = load ptr, ptr %3, align 8, !tbaa !29
  %16 = getelementptr inbounds nuw %struct.SimbiosisIMXContext, ptr %15, i32 0, i32 2
  %17 = getelementptr inbounds [32768 x i8], ptr %16, i64 0, i64 0
  call void @llvm.memset.p0.i64(ptr align 8 %17, i8 0, i64 32768, i1 false)
  call void @llvm.lifetime.end.p0(i64 8, ptr %3) #8
  ret void
}