; Function Attrs: nounwind uwtable
define internal void @imx_decode_flush(ptr noundef readonly captures(none) %0) #1 {
  %2 = getelementptr inbounds nuw i8, ptr %0, i64 32
  %3 = load ptr, ptr %2, align 8, !tbaa !4
  %4 = load ptr, ptr %3, align 8, !tbaa !30
  tail call void @av_frame_unref(ptr noundef %4) #6
  %5 = getelementptr inbounds nuw i8, ptr %3, i64 8
  tail call void @llvm.memset.p0.i64(ptr noundef nonnull align 8 dereferenceable(33796) %5, i8 0, i64 33796, i1 false)
  ret void
}